target datalayout = "e-m:e-p270:32:32-p271:32:32-p272:64:64-i64:64-i128:128-f80:128-n8:16:32:64-S128"
target triple = "x86_64-unknown-linux-gnu"

%struct.E100PCIDeviceInfo = type { ptr, ptr, i16, i8, i16, i16, i32, i8, i8, i8 }
%struct.DeviceClass = type { %struct.ObjectClass, [1 x i64], ptr, ptr, ptr, i8, i8, ptr, ptr, ptr, ptr, ptr }
%struct.ObjectClass = type { ptr, ptr, [4 x ptr], [4 x ptr], ptr, ptr }
%struct.PCIDeviceClass = type { %struct.DeviceClass, ptr, ptr, ptr, ptr, i16, i16, i8, i16, i16, i16, ptr }

@.str = private unnamed_addr constant [11 x i8] c"pci-device\00", align 1
@.str.28 = private unnamed_addr constant [17 x i8] c"pxe-eepro100.rom\00", align 1
@.str.29 = private unnamed_addr constant [7 x i8] c"device\00", align 1
@.str.30 = private unnamed_addr constant [101 x i8] c"/home/dtcxzyw/WorkSpace/Projects/compilers/llvm-opt-benchmark/bench/qemu/qemu/include/hw/qdev-core.h\00", align 1
@__func__.DEVICE_CLASS = private unnamed_addr constant [13 x i8] c"DEVICE_CLASS\00", align 1
@.str.31 = private unnamed_addr constant [106 x i8] c"/home/dtcxzyw/WorkSpace/Projects/compilers/llvm-opt-benchmark/bench/qemu/qemu/include/hw/pci/pci_device.h\00", align 1
@__func__.PCI_DEVICE_CLASS = private unnamed_addr constant [17 x i8] c"PCI_DEVICE_CLASS\00", align 1
@.str.32 = private unnamed_addr constant [13 x i8] c"info != NULL\00", align 1
@.str.33 = private unnamed_addr constant [26 x i8] c"../qemu/hw/net/eepro100.c\00", align 1
@__PRETTY_FUNCTION__.eepro100_get_class_by_name = private unnamed_addr constant [60 x i8] c"E100PCIDeviceInfo *eepro100_get_class_by_name(const char *)\00", align 1

; Function Attrs: nounwind sspstrong uwtable
define internal void @set_bit(i64 noundef %nr, ptr noundef %addr) #0 {
entry:
  %nr.addr = alloca i64, align 8
  %addr.addr = alloca ptr, align 8
  %mask = alloca i64, align 8
  %p = alloca ptr, align 8
  store i64 %nr, ptr %nr.addr, align 8
  store ptr %addr, ptr %addr.addr, align 8
  %0 = load i64, ptr %nr.addr, align 8
  %rem = urem i64 %0, 64
  %shl = shl i64 1, %rem
  store i64 %shl, ptr %mask, align 8
  %1 = load ptr, ptr %addr.addr, align 8
  %2 = load i64, ptr %nr.addr, align 8
  %div = udiv i64 %2, 64
  %add.ptr = getelementptr i64, ptr %1, i64 %div
  store ptr %add.ptr, ptr %p, align 8
  %3 = load i64, ptr %mask, align 8
  %4 = load ptr, ptr %p, align 8
  %5 = load i64, ptr %4, align 8
  %or = or i64 %5, %3
  store i64 %or, ptr %4, align 8
  ret void
}

; Function Attrs: nounwind sspstrong uwtable
define internal ptr @eepro100_get_class_by_name(ptr noundef %typename) #0 {
entry:
  %typename.addr = alloca ptr, align 8
  %info = alloca ptr, align 8
  %i = alloca i32, align 4
  store ptr %typename, ptr %typename.addr, align 8
  store ptr null, ptr %info, align 8
  store i32 0, ptr %i, align 4
  br label %for.cond

for.cond:                                         ; preds = %for.inc, %entry
  %0 = load i32, ptr %i, align 4
  %conv = sext i32 %0 to i64
  %cmp = icmp ult i64 %conv, 13
  br i1 %cmp, label %for.body, label %for.end

for.body:                                         ; preds = %for.cond
  %1 = load i32, ptr %i, align 4
  %idxprom = sext i32 %1 to i64
  %arrayidx = getelementptr [13 x %struct.E100PCIDeviceInfo], ptr @e100_devices, i64 0, i64 %idxprom
  %name = getelementptr inbounds %struct.E100PCIDeviceInfo, ptr %arrayidx, i32 0, i32 0
  %2 = load ptr, ptr %name, align 16
  %3 = load ptr, ptr %typename.addr, align 8
  %call = call i32 @strcmp(ptr noundef %2, ptr noundef %3) #7
  %cmp2 = icmp eq i32 %call, 0
  br i1 %cmp2, label %if.then, label %if.end

if.then:                                          ; preds = %for.body
  %4 = load i32, ptr %i, align 4
  %idxprom4 = sext i32 %4 to i64
  %arrayidx5 = getelementptr [13 x %struct.E100PCIDeviceInfo], ptr @e100_devices, i64 0, i64 %idxprom4
  store ptr %arrayidx5, ptr %info, align 8
  br label %for.end

if.end:                                           ; preds = %for.body
  br label %for.inc

for.inc:                                          ; preds = %if.end
  %5 = load i32, ptr %i, align 4
  %inc = add i32 %5, 1
  store i32 %inc, ptr %i, align 4
  br label %for.cond, !llvm.loop !7

for.end:                                          ; preds = %if.then, %for.cond
  %6 = load ptr, ptr %info, align 8
  %cmp6 = icmp ne ptr %6, null
  br i1 %cmp6, label %if.then8, label %if.else

if.then8:                                         ; preds = %for.end
  br label %if.end9

if.else:                                          ; preds = %for.end
  call void @__assert_fail(ptr noundef @.str.32, ptr noundef @.str.33, i32 noundef 2049, ptr noundef @__PRETTY_FUNCTION__.eepro100_get_class_by_name) #8
  unreachable

if.end9:                                          ; preds = %if.then8
  %7 = load ptr, ptr %info, align 8
  ret ptr %7
}

; Function Attrs: nounwind sspstrong uwtable
define internal ptr @PCI_DEVICE_CLASS(ptr noundef %klass) #0 {
entry:
  %klass.addr = alloca ptr, align 8
  store ptr %klass, ptr %klass.addr, align 8
  %0 = load ptr, ptr %klass.addr, align 8
  %call = call ptr @object_class_dynamic_cast_assert(ptr noundef %0, ptr noundef @.str, ptr noundef @.str.31, i32 noundef 10, ptr noundef @__func__.PCI_DEVICE_CLASS)
  ret ptr %call
}

; Function Attrs: nounwind sspstrong uwtable
define internal ptr @DEVICE_CLASS(ptr noundef %klass) #0 {
entry:
  %klass.addr = alloca ptr, align 8
  store ptr %klass, ptr %klass.addr, align 8
  %0 = load ptr, ptr %klass.addr, align 8
  %call = call ptr @object_class_dynamic_cast_assert(ptr noundef %0, ptr noundef @.str.29, ptr noundef @.str.30, i32 noundef 77, ptr noundef @__func__.DEVICE_CLASS)
  ret ptr %call
}

; Function Attrs: nounwind sspstrong uwtable
define internal void @eepro100_class_init(ptr noundef %klass, ptr noundef %data) #0 {
entry:
  %klass.addr = alloca ptr, align 8
  %data.addr = alloca ptr, align 8
  %dc = alloca ptr, align 8
  %k = alloca ptr, align 8
  %info = alloca ptr, align 8
  store ptr %klass, ptr %klass.addr, align 8
  store ptr %data, ptr %data.addr, align 8
  %0 = load ptr, ptr %klass.addr, align 8
  %call = call ptr @DEVICE_CLASS(ptr noundef %0)
  store ptr %call, ptr %dc, align 8
  %1 = load ptr, ptr %klass.addr, align 8
  %call1 = call ptr @PCI_DEVICE_CLASS(ptr noundef %1)
  store ptr %call1, ptr %k, align 8
  %2 = load ptr, ptr %klass.addr, align 8
  %call2 = call ptr @object_class_get_name(ptr noundef %2)
  %call3 = call ptr @eepro100_get_class_by_name(ptr noundef %call2)
  store ptr %call3, ptr %info, align 8
  %3 = load ptr, ptr %dc, align 8
  %categories = getelementptr inbounds %struct.DeviceClass, ptr %3, i32 0, i32 1
  %arraydecay = getelementptr inbounds [1 x i64], ptr %categories, i64 0, i64 0
  call void @set_bit(i64 noundef 3, ptr noundef %arraydecay)
  %4 = load ptr, ptr %dc, align 8
  call void @device_class_set_props(ptr noundef %4, ptr noundef @e100_properties)
  %5 = load ptr, ptr %info, align 8
  %desc = getelementptr inbounds %struct.E100PCIDeviceInfo, ptr %5, i32 0, i32 1
  %6 = load ptr, ptr %desc, align 8
  %7 = load ptr, ptr %dc, align 8
  %desc4 = getelementptr inbounds %struct.DeviceClass, ptr %7, i32 0, i32 3
  store ptr %6, ptr %desc4, align 8
  %8 = load ptr, ptr %k, align 8
  %vendor_id = getelementptr inbounds %struct.PCIDeviceClass, ptr %8, i32 0, i32 5
  store i16 -32634, ptr %vendor_id, align 8
  %9 = load ptr, ptr %k, align 8
  %class_id = getelementptr inbounds %struct.PCIDeviceClass, ptr %9, i32 0, i32 8
  store i16 512, ptr %class_id, align 2
  %10 = load ptr, ptr %k, align 8
  %romfile = getelementptr inbounds %struct.PCIDeviceClass, ptr %10, i32 0, i32 11
  store ptr @.str.28, ptr %romfile, align 8
  %11 = load ptr, ptr %k, align 8
  %realize = getelementptr inbounds %struct.PCIDeviceClass, ptr %11, i32 0, i32 1
  store ptr @e100_nic_realize, ptr %realize, align 8
  %12 = load ptr, ptr %k, align 8
  %exit = getelementptr inbounds %struct.PCIDeviceClass, ptr %12, i32 0, i32 2
  store ptr @pci_nic_uninit, ptr %exit, align 8
  %13 = load ptr, ptr %info, align 8
  %device_id = getelementptr inbounds %struct.E100PCIDeviceInfo, ptr %13, i32 0, i32 2
  %14 = load i16, ptr %device_id, align 8
  %15 = load ptr, ptr %k, align 8
  %device_id5 = getelementptr inbounds %struct.PCIDeviceClass, ptr %15, i32 0, i32 6
  store i16 %14, ptr %device_id5, align 2
  %16 = load ptr, ptr %info, align 8
  %revision = getelementptr inbounds %struct.E100PCIDeviceInfo, ptr %16, i32 0, i32 3
  %17 = load i8, ptr %revision, align 2
  %18 = load ptr, ptr %k, align 8
  %revision6 = getelementptr inbounds %struct.PCIDeviceClass, ptr %18, i32 0, i32 7
  store i8 %17, ptr %revision6, align 4
  %19 = load ptr, ptr %info, align 8
  %subsystem_vendor_id = getelementptr inbounds %struct.E100PCIDeviceInfo, ptr %19, i32 0, i32 4
  %20 = load i16, ptr %subsystem_vendor_id, align 4
  %21 = load ptr, ptr %k, align 8
  %subsystem_vendor_id7 = getelementptr inbounds %struct.PCIDeviceClass, ptr %21, i32 0, i32 9
  store i16 %20, ptr %subsystem_vendor_id7, align 8
  %22 = load ptr, ptr %info, align 8
  %subsystem_id = getelementptr inbounds %struct.E100PCIDeviceInfo, ptr %22, i32 0, i32 5
  %23 = load i16, ptr %subsystem_id, align 2
  %24 = load ptr, ptr %k, align 8
  %subsystem_id8 = getelementptr inbounds %struct.PCIDeviceClass, ptr %24, i32 0, i32 10
  store i16 %23, ptr %subsystem_id8, align 2
  ret void
}