; Function Attrs: nounwind sspstrong uwtable
define internal void @eepro100_class_init(ptr noundef %klass, ptr readnone captures(none) %data) #0 {
entry:
  %call.i = tail call ptr @object_class_dynamic_cast_assert(ptr noundef %klass, ptr noundef nonnull @.str.29, ptr noundef nonnull @.str.30, i32 noundef 77, ptr noundef nonnull @__func__.DEVICE_CLASS) #12
  %call.i17 = tail call ptr @object_class_dynamic_cast_assert(ptr noundef %klass, ptr noundef nonnull @.str, ptr noundef nonnull @.str.31, i32 noundef 10, ptr noundef nonnull @__func__.PCI_DEVICE_CLASS) #12
  %call2 = tail call ptr @object_class_get_name(ptr noundef %klass) #12
  br label %for.body.i

for.cond.i:                                       ; preds = %for.body.i
  %indvars.iv.next.i = add nuw nsw i64 %indvars.iv.i, 1
  %exitcond.not.i = icmp eq i64 %indvars.iv.next.i, 13
  br i1 %exitcond.not.i, label %if.else.i, label %for.body.i, !llvm.loop !7

for.body.i:                                       ; preds = %for.cond.i, %entry
  %indvars.iv.i = phi i64 [ 0, %entry ], [ %indvars.iv.next.i, %for.cond.i ]
  %arrayidx.i = getelementptr [13 x %struct.E100PCIDeviceInfo], ptr @e100_devices, i64 0, i64 %indvars.iv.i
  %0 = load ptr, ptr %arrayidx.i, align 16
  %call.i18 = tail call i32 @strcmp(ptr noundef nonnull dereferenceable(1) %0, ptr noundef nonnull readonly dereferenceable(1) %call2) #13
  %cmp2.i = icmp eq i32 %call.i18, 0
  br i1 %cmp2.i, label %eepro100_get_class_by_name.exit, label %for.cond.i

if.else.i:                                        ; preds = %for.cond.i
  tail call void @__assert_fail(ptr noundef nonnull @.str.32, ptr noundef nonnull @.str.33, i32 noundef 2049, ptr noundef nonnull @__PRETTY_FUNCTION__.eepro100_get_class_by_name) #14
  unreachable

eepro100_get_class_by_name.exit:                  ; preds = %for.body.i
  %categories = getelementptr inbounds nuw i8, ptr %call.i, i64 96
  %1 = load i64, ptr %categories, align 8
  %or.i = or i64 %1, 8
  store i64 %or.i, ptr %categories, align 8
  tail call void @device_class_set_props(ptr noundef %call.i, ptr noundef nonnull @e100_properties) #12
  %desc = getelementptr inbounds nuw i8, ptr %arrayidx.i, i64 8
  %2 = load ptr, ptr %desc, align 8
  %desc4 = getelementptr inbounds nuw i8, ptr %call.i, i64 112
  store ptr %2, ptr %desc4, align 8
  %vendor_id = getelementptr inbounds nuw i8, ptr %call.i17, i64 208
  store i16 -32634, ptr %vendor_id, align 8
  %class_id = getelementptr inbounds nuw i8, ptr %call.i17, i64 214
  store i16 512, ptr %class_id, align 2
  %romfile = getelementptr inbounds nuw i8, ptr %call.i17, i64 224
  store ptr @.str.28, ptr %romfile, align 8
  %realize = getelementptr inbounds nuw i8, ptr %call.i17, i64 176
  store ptr @e100_nic_realize, ptr %realize, align 8
  %exit = getelementptr inbounds nuw i8, ptr %call.i17, i64 184
  store ptr @pci_nic_uninit, ptr %exit, align 8
  %device_id = getelementptr inbounds nuw i8, ptr %arrayidx.i, i64 16
  %3 = load i16, ptr %device_id, align 8
  %device_id5 = getelementptr inbounds nuw i8, ptr %call.i17, i64 210
  store i16 %3, ptr %device_id5, align 2
  %revision = getelementptr inbounds nuw i8, ptr %arrayidx.i, i64 18
  %4 = load i8, ptr %revision, align 2
  %revision6 = getelementptr inbounds nuw i8, ptr %call.i17, i64 212
  store i8 %4, ptr %revision6, align 4
  %subsystem_vendor_id = getelementptr inbounds nuw i8, ptr %arrayidx.i, i64 20
  %5 = load i16, ptr %subsystem_vendor_id, align 4
  %subsystem_vendor_id7 = getelementptr inbounds nuw i8, ptr %call.i17, i64 216
  store i16 %5, ptr %subsystem_vendor_id7, align 8
  %subsystem_id = getelementptr inbounds nuw i8, ptr %arrayidx.i, i64 22
  %6 = load i16, ptr %subsystem_id, align 2
  %subsystem_id8 = getelementptr inbounds nuw i8, ptr %call.i17, i64 218
  store i16 %6, ptr %subsystem_id8, align 2
  ret void
}